target datalayout = "e-m:e-p270:32:32-p271:32:32-p272:64:64-i64:64-i128:128-f80:128-n8:16:32:64-S128"
target triple = "x86_64-pc-linux-gnu"

%struct.pull_t = type <{ %struct.pull_params_t, i8, i8, i8, i8, i32, i32, i8, [3 x i8], i32, i8, [3 x i8], %"class.std::vector.14", %"class.std::vector.19", i8, [7 x i8], %"class.std::vector.24", %struct.pull_comm_t, ptr, ptr, i8, i8, [6 x i8], ptr, i32, i32, i32, [4 x i8] }>
%struct.pull_params_t = type { i32, i32, float, float, i8, i8, i8, i8, i32, i32, i8, i8, %"class.std::vector", %"class.std::vector.9" }
%"class.std::vector" = type { %"struct.std::_Vector_base" }
%"struct.std::_Vector_base" = type { %"struct.std::_Vector_base<t_pull_group, std::allocator<t_pull_group>>::_Vector_impl" }
%"struct.std::_Vector_base<t_pull_group, std::allocator<t_pull_group>>::_Vector_impl" = type { %"struct.std::_Vector_base<t_pull_group, std::allocator<t_pull_group>>::_Vector_impl_data" }
%"struct.std::_Vector_base<t_pull_group, std::allocator<t_pull_group>>::_Vector_impl_data" = type { ptr, ptr, ptr }
%"class.std::vector.9" = type { %"struct.std::_Vector_base.10" }
%"struct.std::_Vector_base.10" = type { %"struct.std::_Vector_base<t_pull_coord, std::allocator<t_pull_coord>>::_Vector_impl" }
%"struct.std::_Vector_base<t_pull_coord, std::allocator<t_pull_coord>>::_Vector_impl" = type { %"struct.std::_Vector_base<t_pull_coord, std::allocator<t_pull_coord>>::_Vector_impl_data" }
%"struct.std::_Vector_base<t_pull_coord, std::allocator<t_pull_coord>>::_Vector_impl_data" = type { ptr, ptr, ptr }
%"class.std::vector.14" = type { %"struct.std::_Vector_base.15" }
%"struct.std::_Vector_base.15" = type { %"struct.std::_Vector_base<pull_group_work_t, std::allocator<pull_group_work_t>>::_Vector_impl" }
%"struct.std::_Vector_base<pull_group_work_t, std::allocator<pull_group_work_t>>::_Vector_impl" = type { %"struct.std::_Vector_base<pull_group_work_t, std::allocator<pull_group_work_t>>::_Vector_impl_data" }
%"struct.std::_Vector_base<pull_group_work_t, std::allocator<pull_group_work_t>>::_Vector_impl_data" = type { ptr, ptr, ptr }
%"class.std::vector.19" = type { %"struct.std::_Vector_base.20" }
%"struct.std::_Vector_base.20" = type { %"struct.std::_Vector_base<pull_coord_work_t, std::allocator<pull_coord_work_t>>::_Vector_impl" }
%"struct.std::_Vector_base<pull_coord_work_t, std::allocator<pull_coord_work_t>>::_Vector_impl" = type { %"struct.std::_Vector_base<pull_coord_work_t, std::allocator<pull_coord_work_t>>::_Vector_impl_data" }
%"struct.std::_Vector_base<pull_coord_work_t, std::allocator<pull_coord_work_t>>::_Vector_impl_data" = type { ptr, ptr, ptr }
%"class.std::vector.24" = type { %"struct.std::_Vector_base.25" }
%"struct.std::_Vector_base.25" = type { %"struct.std::_Vector_base<ComSums, std::allocator<ComSums>>::_Vector_impl" }
%"struct.std::_Vector_base<ComSums, std::allocator<ComSums>>::_Vector_impl" = type { %"struct.std::_Vector_base<ComSums, std::allocator<ComSums>>::_Vector_impl_data" }
%"struct.std::_Vector_base<ComSums, std::allocator<ComSums>>::_Vector_impl_data" = type { ptr, ptr, ptr }
%struct.pull_comm_t = type { i8, i8, ptr, i32, i8, i64, i64, %"class.std::vector.29", %"class.std::vector.34", %"class.std::vector.39" }
%"class.std::vector.29" = type { %"struct.std::_Vector_base.30" }
%"struct.std::_Vector_base.30" = type { %"struct.std::_Vector_base<gmx::BasicVector<float>, std::allocator<gmx::BasicVector<float>>>::_Vector_impl" }
%"struct.std::_Vector_base<gmx::BasicVector<float>, std::allocator<gmx::BasicVector<float>>>::_Vector_impl" = type { %"struct.std::_Vector_base<gmx::BasicVector<float>, std::allocator<gmx::BasicVector<float>>>::_Vector_impl_data" }
%"struct.std::_Vector_base<gmx::BasicVector<float>, std::allocator<gmx::BasicVector<float>>>::_Vector_impl_data" = type { ptr, ptr, ptr }
%"class.std::vector.34" = type { %"struct.std::_Vector_base.35" }
%"struct.std::_Vector_base.35" = type { %"struct.std::_Vector_base<gmx::BasicVector<double>, std::allocator<gmx::BasicVector<double>>>::_Vector_impl" }
%"struct.std::_Vector_base<gmx::BasicVector<double>, std::allocator<gmx::BasicVector<double>>>::_Vector_impl" = type { %"struct.std::_Vector_base<gmx::BasicVector<double>, std::allocator<gmx::BasicVector<double>>>::_Vector_impl_data" }
%"struct.std::_Vector_base<gmx::BasicVector<double>, std::allocator<gmx::BasicVector<double>>>::_Vector_impl_data" = type { ptr, ptr, ptr }
%"class.std::vector.39" = type { %"struct.std::_Vector_base.40" }
%"struct.std::_Vector_base.40" = type { %"struct.std::_Vector_base<double, std::allocator<double>>::_Vector_impl" }
%"struct.std::_Vector_base<double, std::allocator<double>>::_Vector_impl" = type { %"struct.std::_Vector_base<double, std::allocator<double>>::_Vector_impl_data" }
%"struct.std::_Vector_base<double, std::allocator<double>>::_Vector_impl_data" = type { ptr, ptr, ptr }
%struct.pull_group_work_t = type { %struct.t_pull_group, i32, i32, i8, %"class.std::vector.59", %"class.gmx::LocalAtomSet", %"class.std::vector.59", %"class.std::unique_ptr.64", float, float, float, %"class.std::vector.34", %"class.std::vector.39", [3 x double], [3 x double], [3 x double] }
%struct.t_pull_group = type { %"class.std::vector.54", %"class.std::vector.59", i32, i32 }
%"class.std::vector.54" = type { %"struct.std::_Vector_base.55" }
%"struct.std::_Vector_base.55" = type { %"struct.std::_Vector_base<int, std::allocator<int>>::_Vector_impl" }
%"struct.std::_Vector_base<int, std::allocator<int>>::_Vector_impl" = type { %"struct.std::_Vector_base<int, std::allocator<int>>::_Vector_impl_data" }
%"struct.std::_Vector_base<int, std::allocator<int>>::_Vector_impl_data" = type { ptr, ptr, ptr }
%"class.gmx::LocalAtomSet" = type { ptr }
%"class.std::vector.59" = type { %"struct.std::_Vector_base.60" }
%"struct.std::_Vector_base.60" = type { %"struct.std::_Vector_base<float, std::allocator<float>>::_Vector_impl" }
%"struct.std::_Vector_base<float, std::allocator<float>>::_Vector_impl" = type { %"struct.std::_Vector_base<float, std::allocator<float>>::_Vector_impl_data" }
%"struct.std::_Vector_base<float, std::allocator<float>>::_Vector_impl_data" = type { ptr, ptr, ptr }
%"class.std::unique_ptr.64" = type { %"struct.std::__uniq_ptr_data.65" }
%"struct.std::__uniq_ptr_data.65" = type { %"class.std::__uniq_ptr_impl.66" }
%"class.std::__uniq_ptr_impl.66" = type { %"class.std::tuple.67" }
%"class.std::tuple.67" = type { %"struct.std::_Tuple_impl.68" }
%"struct.std::_Tuple_impl.68" = type { %"struct.std::_Head_base.71" }
%"struct.std::_Head_base.71" = type { ptr }
%"class.gmx::ArrayRef.103" = type { %"struct.gmx::ArrayRefIter.104", %"struct.gmx::ArrayRefIter.104" }
%"struct.gmx::ArrayRefIter.104" = type { ptr }
%class.anon = type { i8 }

@.str.5 = private unnamed_addr constant [126 x i8] c"generated/home/dtcxzyw/WorkSpace/Projects/compilers/llvm-opt-benchmark/bench/gromacs/gromacs/src/gromacs/pulling/pullutil.cpp\00", align 1
@.str.11 = private unnamed_addr constant [51 x i8] c"prevStepPullCom.size() >= pull->group.size() * DIM\00", align 1
@.str.12 = private unnamed_addr constant [31 x i8] c"Pull COM vector size mismatch.\00", align 1
@"__PRETTY_FUNCTION__._ZZ18setPrevStepPullComP6pull_tN3gmx8ArrayRefIKdEEENK3$_0clEv" = private unnamed_addr constant [102 x i8] c"auto setPrevStepPullCom(pull_t *, gmx::ArrayRef<const double>)::(anonymous class)::operator()() const\00", align 1

; Function Attrs: mustprogress nounwind uwtable
define linkonce_odr noundef nonnull align 8 dereferenceable(8) ptr @_ZNK3gmx12ArrayRefIterIKdEdeEv(ptr noundef nonnull align 8 dereferenceable(8) %0) #6 comdat align 2 {
  %2 = alloca ptr, align 8
  store ptr %0, ptr %2, align 8
  %3 = load ptr, ptr %2, align 8
  %4 = getelementptr inbounds %"struct.gmx::ArrayRefIter.104", ptr %3, i32 0, i32 0
  %5 = load ptr, ptr %4, align 8
  ret ptr %5
}

; Function Attrs: mustprogress nounwind uwtable
define linkonce_odr noundef nonnull align 8 dereferenceable(8) ptr @_ZN3gmx12ArrayRefIterIKdEpLEl(ptr noundef nonnull align 8 dereferenceable(8) %0, i64 noundef %1) #6 comdat align 2 {
  %3 = alloca ptr, align 8
  %4 = alloca i64, align 8
  store ptr %0, ptr %3, align 8
  store i64 %1, ptr %4, align 8
  %5 = load ptr, ptr %3, align 8
  %6 = load i64, ptr %4, align 8
  %7 = getelementptr inbounds %"struct.gmx::ArrayRefIter.104", ptr %5, i32 0, i32 0
  %8 = load ptr, ptr %7, align 8
  %9 = getelementptr inbounds double, ptr %8, i64 %6
  store ptr %9, ptr %7, align 8
  ret ptr %5
}

; Function Attrs: mustprogress nounwind uwtable
define linkonce_odr noundef nonnull align 8 dereferenceable(8) ptr @_ZNK3gmx5boost14stl_interfaces2v118iterator_interfaceINS_12ArrayRefIterIKdEESt26random_access_iterator_tagS5_RS5_PS5_lvE7derivedEv(ptr noundef nonnull align 1 dereferenceable(1) %0) #6 comdat align 2 {
  %2 = alloca ptr, align 8
  store ptr %0, ptr %2, align 8
  %3 = load ptr, ptr %2, align 8
  ret ptr %3
}

; Function Attrs: mustprogress nounwind uwtable
define linkonce_odr noundef nonnull align 8 dereferenceable(8) ptr @_ZNK3gmx5boost14stl_interfaces2v118iterator_interfaceINS_12ArrayRefIterIKdEESt26random_access_iterator_tagS5_RS5_PS5_lvEixIS6_EEDTcmpLclsr3stdE7declvalIRT_EEfp_declsr3stdE7declvalISD_EEEl(ptr noundef nonnull align 1 dereferenceable(1) %0, i64 noundef %1) #6 comdat align 2 {
  %3 = alloca ptr, align 8
  %4 = alloca i64, align 8
  %5 = alloca %"struct.gmx::ArrayRefIter.104", align 8
  store ptr %0, ptr %3, align 8
  store i64 %1, ptr %4, align 8
  %6 = load ptr, ptr %3, align 8
  %7 = call noundef nonnull align 8 dereferenceable(8) ptr @_ZNK3gmx5boost14stl_interfaces2v118iterator_interfaceINS_12ArrayRefIterIKdEESt26random_access_iterator_tagS5_RS5_PS5_lvE7derivedEv(ptr noundef nonnull align 1 dereferenceable(1) %6) #3
  call void @llvm.memcpy.p0.p0.i64(ptr align 8 %5, ptr align 8 %7, i64 8, i1 false)
  %8 = load i64, ptr %4, align 8
  %9 = call noundef nonnull align 8 dereferenceable(8) ptr @_ZN3gmx12ArrayRefIterIKdEpLEl(ptr noundef nonnull align 8 dereferenceable(8) %5, i64 noundef %8) #3
  %10 = call noundef nonnull align 8 dereferenceable(8) ptr @_ZNK3gmx12ArrayRefIterIKdEdeEv(ptr noundef nonnull align 8 dereferenceable(8) %5) #3
  ret ptr %10
}

; Function Attrs: mustprogress nounwind uwtable
define linkonce_odr noundef i64 @_ZNK3gmx12ArrayRefIterIKdEmiES2_(ptr noundef nonnull align 8 dereferenceable(8) %0, ptr %1) #6 comdat align 2 {
  %3 = alloca %"struct.gmx::ArrayRefIter.104", align 8
  %4 = alloca ptr, align 8
  %5 = getelementptr inbounds %"struct.gmx::ArrayRefIter.104", ptr %3, i32 0, i32 0
  store ptr %1, ptr %5, align 8
  store ptr %0, ptr %4, align 8
  %6 = load ptr, ptr %4, align 8
  %7 = getelementptr inbounds %"struct.gmx::ArrayRefIter.104", ptr %6, i32 0, i32 0
  %8 = load ptr, ptr %7, align 8
  %9 = getelementptr inbounds %"struct.gmx::ArrayRefIter.104", ptr %3, i32 0, i32 0
  %10 = load ptr, ptr %9, align 8
  %11 = ptrtoint ptr %8 to i64
  %12 = ptrtoint ptr %10 to i64
  %13 = sub i64 %11, %12
  %14 = sdiv exact i64 %13, 8
  ret i64 %14
}

; Function Attrs: mustprogress nounwind uwtable
define linkonce_odr noundef nonnull align 8 dereferenceable(272) ptr @_ZNSt6vectorI17pull_group_work_tSaIS0_EEixEm(ptr noundef nonnull align 8 dereferenceable(24) %0, i64 noundef %1) #6 comdat align 2 {
  %3 = alloca ptr, align 8
  %4 = alloca i64, align 8
  store ptr %0, ptr %3, align 8
  store i64 %1, ptr %4, align 8
  %5 = load ptr, ptr %3, align 8
  %6 = getelementptr inbounds %"struct.std::_Vector_base.15", ptr %5, i32 0, i32 0
  %7 = getelementptr inbounds %"struct.std::_Vector_base<pull_group_work_t, std::allocator<pull_group_work_t>>::_Vector_impl_data", ptr %6, i32 0, i32 0
  %8 = load ptr, ptr %7, align 8
  %9 = load i64, ptr %4, align 8
  %10 = getelementptr inbounds %struct.pull_group_work_t, ptr %8, i64 %9
  ret ptr %10
}

; Function Attrs: mustprogress nounwind uwtable
define linkonce_odr noundef nonnull align 8 dereferenceable(8) ptr @_ZNK3gmx8ArrayRefIKdEixEm(ptr noundef nonnull align 8 dereferenceable(16) %0, i64 noundef %1) #6 comdat align 2 {
  %3 = alloca ptr, align 8
  %4 = alloca i64, align 8
  store ptr %0, ptr %3, align 8
  store i64 %1, ptr %4, align 8
  %5 = load ptr, ptr %3, align 8
  %6 = getelementptr inbounds %"class.gmx::ArrayRef.103", ptr %5, i32 0, i32 0
  %7 = load i64, ptr %4, align 8
  %8 = call noundef nonnull align 8 dereferenceable(8) ptr @_ZNK3gmx5boost14stl_interfaces2v118iterator_interfaceINS_12ArrayRefIterIKdEESt26random_access_iterator_tagS5_RS5_PS5_lvEixIS6_EEDTcmpLclsr3stdE7declvalIRT_EEfp_declsr3stdE7declvalISD_EEEl(ptr noundef nonnull align 1 dereferenceable(1) %6, i64 noundef %7) #3
  ret ptr %8
}

; Function Attrs: mustprogress nounwind uwtable
define linkonce_odr noundef i64 @_ZN3gmx5ssizeISt6vectorI17pull_group_work_tSaIS2_EEEElRKT_(ptr noundef nonnull align 8 dereferenceable(24) %0) #6 comdat {
  %2 = alloca ptr, align 8
  store ptr %0, ptr %2, align 8
  %3 = load ptr, ptr %2, align 8
  %4 = call noundef i64 @_ZNKSt6vectorI17pull_group_work_tSaIS0_EE4sizeEv(ptr noundef nonnull align 8 dereferenceable(24) %3) #3
  ret i64 %4
}

; Function Attrs: mustprogress uwtable
define internal void @"_ZZ18setPrevStepPullComP6pull_tN3gmx8ArrayRefIKdEEENK3$_0clEv"(ptr noundef nonnull align 1 dereferenceable(1) %0) #4 align 2 {
  %2 = alloca ptr, align 8
  store ptr %0, ptr %2, align 8
  call void @_ZN3gmx8internal13assertHandlerEPKcS2_S2_S2_i(ptr noundef @.str.11, ptr noundef @.str.12, ptr noundef @"__PRETTY_FUNCTION__._ZZ18setPrevStepPullComP6pull_tN3gmx8ArrayRefIKdEEENK3$_0clEv", ptr noundef @.str.5, i32 noundef 1042) #16
  unreachable
}

; Function Attrs: mustprogress nounwind uwtable
define linkonce_odr noundef i64 @_ZNKSt6vectorI17pull_group_work_tSaIS0_EE4sizeEv(ptr noundef nonnull align 8 dereferenceable(24) %0) #6 comdat align 2 {
  %2 = alloca ptr, align 8
  store ptr %0, ptr %2, align 8
  %3 = load ptr, ptr %2, align 8
  %4 = getelementptr inbounds %"struct.std::_Vector_base.15", ptr %3, i32 0, i32 0
  %5 = getelementptr inbounds %"struct.std::_Vector_base<pull_group_work_t, std::allocator<pull_group_work_t>>::_Vector_impl_data", ptr %4, i32 0, i32 1
  %6 = load ptr, ptr %5, align 8
  %7 = getelementptr inbounds %"struct.std::_Vector_base.15", ptr %3, i32 0, i32 0
  %8 = getelementptr inbounds %"struct.std::_Vector_base<pull_group_work_t, std::allocator<pull_group_work_t>>::_Vector_impl_data", ptr %7, i32 0, i32 0
  %9 = load ptr, ptr %8, align 8
  %10 = ptrtoint ptr %6 to i64
  %11 = ptrtoint ptr %9 to i64
  %12 = sub i64 %10, %11
  %13 = sdiv exact i64 %12, 272
  ret i64 %13
}

; Function Attrs: mustprogress nounwind uwtable
define linkonce_odr noundef i64 @_ZNK3gmx8ArrayRefIKdE4sizeEv(ptr noundef nonnull align 8 dereferenceable(16) %0) #6 comdat align 2 {
  %2 = alloca ptr, align 8
  %3 = alloca %"struct.gmx::ArrayRefIter.104", align 8
  store ptr %0, ptr %2, align 8
  %4 = load ptr, ptr %2, align 8
  %5 = getelementptr inbounds %"class.gmx::ArrayRef.103", ptr %4, i32 0, i32 1
  %6 = getelementptr inbounds %"class.gmx::ArrayRef.103", ptr %4, i32 0, i32 0
  call void @llvm.memcpy.p0.p0.i64(ptr align 8 %3, ptr align 8 %6, i64 8, i1 false)
  %7 = getelementptr inbounds %"struct.gmx::ArrayRefIter.104", ptr %3, i32 0, i32 0
  %8 = load ptr, ptr %7, align 8
  %9 = call noundef i64 @_ZNK3gmx12ArrayRefIterIKdEmiES2_(ptr noundef nonnull align 8 dereferenceable(8) %5, ptr %8) #3
  ret i64 %9
}

; Function Attrs: mustprogress uwtable
define void @_Z18setPrevStepPullComP6pull_tN3gmx8ArrayRefIKdEE(ptr noundef %0, ptr %1, ptr %2) #4 {
  %4 = alloca %"class.gmx::ArrayRef.103", align 8
  %5 = alloca ptr, align 8
  %6 = alloca %class.anon, align 1
  %7 = alloca i64, align 8
  %8 = alloca i32, align 4
  %9 = getelementptr inbounds { ptr, ptr }, ptr %4, i32 0, i32 0
  store ptr %1, ptr %9, align 8
  %10 = getelementptr inbounds { ptr, ptr }, ptr %4, i32 0, i32 1
  store ptr %2, ptr %10, align 8
  store ptr %0, ptr %5, align 8
  %11 = call noundef i64 @_ZNK3gmx8ArrayRefIKdE4sizeEv(ptr noundef nonnull align 8 dereferenceable(16) %4)
  %12 = load ptr, ptr %5, align 8
  %13 = getelementptr inbounds %struct.pull_t, ptr %12, i32 0, i32 12
  %14 = call noundef i64 @_ZNKSt6vectorI17pull_group_work_tSaIS0_EE4sizeEv(ptr noundef nonnull align 8 dereferenceable(24) %13) #3
  %15 = mul i64 %14, 3
  %16 = icmp uge i64 %11, %15
  br i1 %16, label %17, label %18

17:                                               ; preds = %3
  br label %19

18:                                               ; preds = %3
  call void @"_ZZ18setPrevStepPullComP6pull_tN3gmx8ArrayRefIKdEEENK3$_0clEv"(ptr noundef nonnull align 1 dereferenceable(1) %6)
  br label %19

19:                                               ; preds = %18, %17
  store i64 0, ptr %7, align 8
  br label %20

20:                                               ; preds = %50, %19
  %21 = load i64, ptr %7, align 8
  %22 = load ptr, ptr %5, align 8
  %23 = getelementptr inbounds %struct.pull_t, ptr %22, i32 0, i32 12
  %24 = call noundef i64 @_ZN3gmx5ssizeISt6vectorI17pull_group_work_tSaIS2_EEEElRKT_(ptr noundef nonnull align 8 dereferenceable(24) %23)
  %25 = icmp slt i64 %21, %24
  br i1 %25, label %26, label %53

26:                                               ; preds = %20
  store i32 0, ptr %8, align 4
  br label %27

27:                                               ; preds = %46, %26
  %28 = load i32, ptr %8, align 4
  %29 = icmp slt i32 %28, 3
  br i1 %29, label %30, label %49

30:                                               ; preds = %27
  %31 = load i64, ptr %7, align 8
  %32 = mul nsw i64 %31, 3
  %33 = load i32, ptr %8, align 4
  %34 = sext i32 %33 to i64
  %35 = add nsw i64 %32, %34
  %36 = call noundef nonnull align 8 dereferenceable(8) ptr @_ZNK3gmx8ArrayRefIKdEixEm(ptr noundef nonnull align 8 dereferenceable(16) %4, i64 noundef %35)
  %37 = load double, ptr %36, align 8
  %38 = load ptr, ptr %5, align 8
  %39 = getelementptr inbounds %struct.pull_t, ptr %38, i32 0, i32 12
  %40 = load i64, ptr %7, align 8
  %41 = call noundef nonnull align 8 dereferenceable(272) ptr @_ZNSt6vectorI17pull_group_work_tSaIS0_EEixEm(ptr noundef nonnull align 8 dereferenceable(24) %39, i64 noundef %40) #3
  %42 = getelementptr inbounds %struct.pull_group_work_t, ptr %41, i32 0, i32 15
  %43 = load i32, ptr %8, align 4
  %44 = sext i32 %43 to i64
  %45 = getelementptr inbounds [3 x double], ptr %42, i64 0, i64 %44
  store double %37, ptr %45, align 8
  br label %46

46:                                               ; preds = %30
  %47 = load i32, ptr %8, align 4
  %48 = add nsw i32 %47, 1
  store i32 %48, ptr %8, align 4
  br label %27, !llvm.loop !54

49:                                               ; preds = %27
  br label %50

50:                                               ; preds = %49
  %51 = load i64, ptr %7, align 8
  %52 = add nsw i64 %51, 1
  store i64 %52, ptr %7, align 8
  br label %20, !llvm.loop !55

53:                                               ; preds = %20
  ret void
}