; Function Attrs: mustprogress uwtable
define void @_Z18setPrevStepPullComP6pull_tN3gmx8ArrayRefIKdEE(ptr nocapture noundef readonly %0, ptr %1, ptr %2) local_unnamed_addr #6 {
  %4 = ptrtoint ptr %2 to i64
  %5 = ptrtoint ptr %1 to i64
  %6 = sub i64 %4, %5
  %7 = ashr exact i64 %6, 3
  %8 = getelementptr inbounds i8, ptr %0, i64 104
  %9 = getelementptr inbounds i8, ptr %0, i64 112
  %10 = load ptr, ptr %9, align 8
  %11 = load ptr, ptr %8, align 8
  %12 = ptrtoint ptr %10 to i64
  %13 = ptrtoint ptr %11 to i64
  %14 = sub i64 %12, %13
  %15 = sdiv exact i64 %14, 272
  %16 = mul nsw i64 %15, 3
  %.not = icmp ult i64 %7, %16
  br i1 %.not, label %18, label %.preheader11

.preheader11:                                     ; preds = %3
  %17 = icmp sgt i64 %14, 0
  br i1 %17, label %.preheader, label %._crit_edge

18:                                               ; preds = %3
  tail call void @_ZN3gmx8internal13assertHandlerEPKcS2_S2_S2_i(ptr noundef nonnull @.str.11, ptr noundef nonnull @.str.12, ptr noundef nonnull @"__PRETTY_FUNCTION__._ZZ18setPrevStepPullComP6pull_tN3gmx8ArrayRefIKdEEENK3$_0clEv", ptr noundef nonnull @.str.5, i32 noundef 1042) #22
  unreachable

.preheader:                                       ; preds = %.preheader11, %26
  %.01013 = phi i64 [ %27, %26 ], [ 0, %.preheader11 ]
  %19 = mul nuw nsw i64 %.01013, 3
  %20 = getelementptr double, ptr %1, i64 %19
  br label %21

21:                                               ; preds = %.preheader, %21
  %indvars.iv = phi i64 [ 0, %.preheader ], [ %indvars.iv.next, %21 ]
  %22 = getelementptr double, ptr %20, i64 %indvars.iv
  %23 = load double, ptr %22, align 8
  %24 = load ptr, ptr %8, align 8
  %25 = getelementptr inbounds %struct.pull_group_work_t, ptr %24, i64 %.01013, i32 15, i64 %indvars.iv
  store double %23, ptr %25, align 8
  %indvars.iv.next = add nuw nsw i64 %indvars.iv, 1
  %exitcond.not = icmp eq i64 %indvars.iv.next, 3
  br i1 %exitcond.not, label %26, label %21, !llvm.loop !54

26:                                               ; preds = %21
  %27 = add nuw nsw i64 %.01013, 1
  %28 = load ptr, ptr %9, align 8
  %29 = load ptr, ptr %8, align 8
  %30 = ptrtoint ptr %28 to i64
  %31 = ptrtoint ptr %29 to i64
  %32 = sub i64 %30, %31
  %33 = sdiv exact i64 %32, 272
  %34 = icmp slt i64 %27, %33
  br i1 %34, label %.preheader, label %._crit_edge, !llvm.loop !55

._crit_edge:                                      ; preds = %26, %.preheader11
  ret void
}